target datalayout = "e-m:e-p270:32:32-p271:32:32-p272:64:64-i64:64-i128:128-f80:128-n8:16:32:64-S128"
target triple = "x86_64-pc-linux-gnu"

%struct._PySemaphore = type { %union.sem_t }
%union.sem_t = type { i64, [24 x i8] }

@__func__._PySemaphore_Wakeup = private unnamed_addr constant [20 x i8] c"_PySemaphore_Wakeup\00", align 1
@.str.1 = private unnamed_addr constant [29 x i8] c"parking_lot: sem_post failed\00", align 1

; Function Attrs: nounwind uwtable
define dso_local void @_PySemaphore_Wakeup(ptr noundef %0) #0 {
  %2 = alloca ptr, align 8
  %3 = alloca i32, align 4
  store ptr %0, ptr %2, align 8, !tbaa !4
  call void @llvm.lifetime.start.p0(i64 4, ptr %3) #9
  %4 = load ptr, ptr %2, align 8, !tbaa !4
  %5 = getelementptr inbounds nuw %struct._PySemaphore, ptr %4, i32 0, i32 0
  %6 = call i32 @sem_post(ptr noundef %5) #9
  store i32 %6, ptr %3, align 4, !tbaa !11
  %7 = load i32, ptr %3, align 4, !tbaa !11
  %8 = icmp ne i32 %7, 0
  br i1 %8, label %9, label %10

9:                                                ; preds = %1
  call void @_Py_FatalErrorFunc(ptr noundef @__func__._PySemaphore_Wakeup, ptr noundef @.str.1) #10
  unreachable

10:                                               ; preds = %1
  call void @llvm.lifetime.end.p0(i64 4, ptr %3) #9
  ret void
}