; Function Attrs: nounwind uwtable
define dso_local void @_PySemaphore_Wakeup(ptr noundef %0) local_unnamed_addr #0 {
  %2 = tail call i32 @sem_post(ptr noundef %0) #9
  %.not = icmp eq i32 %2, 0
  br i1 %.not, label %4, label %3

3:                                                ; preds = %1
  tail call void @_Py_FatalErrorFunc(ptr noundef nonnull @__func__._PySemaphore_Wakeup, ptr noundef nonnull @.str.1) #10
  unreachable

4:                                                ; preds = %1
  ret void
}